; Function Attrs: nounwind uwtable
define void @Ssw_SmlSavePatternAig(ptr noundef readonly captures(none) %0, i32 noundef %1) local_unnamed_addr #0 {
  %3 = getelementptr inbounds nuw i8, ptr %0, i64 248
  %4 = load ptr, ptr %3, align 8
  %5 = getelementptr inbounds nuw i8, ptr %0, i64 240
  %6 = load i32, ptr %5, align 8
  %7 = sext i32 %6 to i64
  %8 = shl nsw i64 %7, 2
  tail call void @llvm.memset.p0.i64(ptr align 4 %4, i8 0, i64 %8, i1 false)
  %9 = getelementptr inbounds nuw i8, ptr %0, i64 16
  %10 = load ptr, ptr %9, align 8
  %11 = getelementptr inbounds nuw i8, ptr %10, i64 16
  %12 = load ptr, ptr %11, align 8
  %13 = getelementptr i8, ptr %12, i64 4
  %.val1112 = load i32, ptr %13, align 4
  %14 = icmp sgt i32 %.val1112, 0
  br i1 %14, label %.lr.ph, label %.critedge

.lr.ph:                                           ; preds = %2
  %15 = getelementptr i8, ptr %0, i64 8
  %16 = getelementptr i8, ptr %0, i64 32
  %17 = getelementptr inbounds nuw i8, ptr %0, i64 64
  br label %18

18:                                               ; preds = %.lr.ph, %70
  %indvars.iv = phi i64 [ 0, %.lr.ph ], [ %indvars.iv.next, %70 ]
  %19 = phi ptr [ %12, %.lr.ph ], [ %73, %70 ]
  %20 = getelementptr i8, ptr %19, i64 8
  %.val = load ptr, ptr %20, align 8
  %21 = getelementptr inbounds nuw ptr, ptr %.val, i64 %indvars.iv
  %22 = load ptr, ptr %21, align 8
  %.val.i = load i32, ptr %15, align 8
  %.val20.i = load ptr, ptr %16, align 8
  %23 = getelementptr i8, ptr %22, i64 36
  %.val21.i = load i32, ptr %23, align 4
  %24 = mul nsw i32 %.val21.i, %.val.i
  %25 = add nsw i32 %24, %1
  %26 = sext i32 %25 to i64
  %27 = getelementptr inbounds ptr, ptr %.val20.i, i64 %26
  %28 = load ptr, ptr %27, align 8
  %29 = load ptr, ptr %17, align 8
  %30 = ptrtoint ptr %28 to i64
  %31 = and i64 %30, -2
  %32 = inttoptr i64 %31 to ptr
  %33 = getelementptr i8, ptr %29, i64 32
  %.val22.i = load ptr, ptr %33, align 8
  %34 = getelementptr i8, ptr %32, i64 36
  %.val23.i = load i32, ptr %34, align 4
  %35 = tail call fastcc i32 @Ssw_ObjSatNum(ptr %.val22.i, i32 %.val23.i)
  %.not.i = icmp eq i32 %35, 0
  br i1 %.not.i, label %49, label %36

36:                                               ; preds = %18
  %37 = trunc i64 %30 to i32
  %38 = and i32 %37, 1
  %39 = load ptr, ptr %17, align 8
  %40 = getelementptr inbounds nuw i8, ptr %39, i64 16
  %41 = load ptr, ptr %40, align 8
  %42 = getelementptr i8, ptr %41, i64 328
  %.val24.i = load ptr, ptr %42, align 8
  %43 = sext i32 %35 to i64
  %44 = getelementptr inbounds i32, ptr %.val24.i, i64 %43
  %45 = load i32, ptr %44, align 4
  %46 = icmp eq i32 %45, 1
  %47 = zext i1 %46 to i32
  %48 = xor i32 %38, %47
  br label %49

49:                                               ; preds = %36, %18
  %50 = phi i32 [ %48, %36 ], [ 0, %18 ]
  %51 = load ptr, ptr %0, align 8
  %52 = getelementptr inbounds nuw i8, ptr %51, i64 68
  %53 = load i32, ptr %52, align 4
  %.not18.i = icmp eq i32 %53, 0
  br i1 %.not18.i, label %Ssw_ManGetSatVarValue.exit, label %54

54:                                               ; preds = %49
  %55 = getelementptr inbounds nuw i8, ptr %32, i64 24
  %56 = load i64, ptr %55, align 8
  %57 = trunc i64 %56 to i32
  %58 = lshr i32 %57, 3
  %59 = and i32 %58, 1
  %spec.select.i = xor i32 %59, %50
  br label %Ssw_ManGetSatVarValue.exit

Ssw_ManGetSatVarValue.exit:                       ; preds = %49, %54
  %.1.i = phi i32 [ %50, %49 ], [ %spec.select.i, %54 ]
  %.not = icmp eq i32 %.1.i, 0
  br i1 %.not, label %70, label %60

60:                                               ; preds = %Ssw_ManGetSatVarValue.exit
  %61 = load ptr, ptr %3, align 8
  %62 = trunc nuw nsw i64 %indvars.iv to i32
  %63 = and i32 %62, 31
  %64 = shl nuw i32 1, %63
  %65 = lshr i64 %indvars.iv, 5
  %66 = and i64 %65, 134217727
  %67 = getelementptr inbounds nuw i32, ptr %61, i64 %66
  %68 = load i32, ptr %67, align 4
  %69 = or i32 %68, %64
  store i32 %69, ptr %67, align 4
  br label %70

70:                                               ; preds = %Ssw_ManGetSatVarValue.exit, %60
  %indvars.iv.next = add nuw nsw i64 %indvars.iv, 1
  %71 = load ptr, ptr %9, align 8
  %72 = getelementptr inbounds nuw i8, ptr %71, i64 16
  %73 = load ptr, ptr %72, align 8
  %74 = getelementptr i8, ptr %73, i64 4
  %.val11 = load i32, ptr %74, align 4
  %75 = sext i32 %.val11 to i64
  %76 = icmp slt i64 %indvars.iv.next, %75
  br i1 %76, label %18, label %.critedge, !llvm.loop !8

.critedge:                                        ; preds = %70, %2
  ret void
}